target datalayout = "e-m:e-p270:32:32-p271:32:32-p272:64:64-i64:64-i128:128-f80:128-n8:16:32:64-S128"
target triple = "x86_64-pc-linux-gnu"

%struct.PHP_CRC32_CTX = type { i32 }

; Function Attrs: nounwind uwtable
define void @PHP_CRC32BEFinal(ptr noundef %0, ptr noundef %1) #0 {
  %3 = alloca ptr, align 8
  %4 = alloca ptr, align 8
  store ptr %0, ptr %3, align 8
  store ptr %1, ptr %4, align 8
  %5 = load ptr, ptr %4, align 8
  %6 = getelementptr inbounds %struct.PHP_CRC32_CTX, ptr %5, i32 0, i32 0
  %7 = load i32, ptr %6, align 4
  %8 = xor i32 %7, -1
  %9 = load ptr, ptr %4, align 8
  %10 = getelementptr inbounds %struct.PHP_CRC32_CTX, ptr %9, i32 0, i32 0
  store i32 %8, ptr %10, align 4
  %11 = load ptr, ptr %4, align 8
  %12 = getelementptr inbounds %struct.PHP_CRC32_CTX, ptr %11, i32 0, i32 0
  %13 = load i32, ptr %12, align 4
  %14 = lshr i32 %13, 24
  %15 = and i32 %14, 255
  %16 = trunc i32 %15 to i8
  %17 = load ptr, ptr %3, align 8
  %18 = getelementptr inbounds i8, ptr %17, i64 0
  store i8 %16, ptr %18, align 1
  %19 = load ptr, ptr %4, align 8
  %20 = getelementptr inbounds %struct.PHP_CRC32_CTX, ptr %19, i32 0, i32 0
  %21 = load i32, ptr %20, align 4
  %22 = lshr i32 %21, 16
  %23 = and i32 %22, 255
  %24 = trunc i32 %23 to i8
  %25 = load ptr, ptr %3, align 8
  %26 = getelementptr inbounds i8, ptr %25, i64 1
  store i8 %24, ptr %26, align 1
  %27 = load ptr, ptr %4, align 8
  %28 = getelementptr inbounds %struct.PHP_CRC32_CTX, ptr %27, i32 0, i32 0
  %29 = load i32, ptr %28, align 4
  %30 = lshr i32 %29, 8
  %31 = and i32 %30, 255
  %32 = trunc i32 %31 to i8
  %33 = load ptr, ptr %3, align 8
  %34 = getelementptr inbounds i8, ptr %33, i64 2
  store i8 %32, ptr %34, align 1
  %35 = load ptr, ptr %4, align 8
  %36 = getelementptr inbounds %struct.PHP_CRC32_CTX, ptr %35, i32 0, i32 0
  %37 = load i32, ptr %36, align 4
  %38 = and i32 %37, 255
  %39 = trunc i32 %38 to i8
  %40 = load ptr, ptr %3, align 8
  %41 = getelementptr inbounds i8, ptr %40, i64 3
  store i8 %39, ptr %41, align 1
  %42 = load ptr, ptr %4, align 8
  %43 = getelementptr inbounds %struct.PHP_CRC32_CTX, ptr %42, i32 0, i32 0
  store i32 0, ptr %43, align 4
  ret void
}