; Function Attrs: mustprogress nofree norecurse nosync nounwind willreturn memory(argmem: readwrite) uwtable
define void @PHP_CRC32BEFinal(ptr nocapture noundef writeonly %0, ptr nocapture noundef %1) #3 {
  %3 = load i32, ptr %1, align 4
  %4 = xor i32 %3, -1
  store i32 %4, ptr %1, align 4
  %5 = lshr i32 %4, 24
  %6 = trunc i32 %5 to i8
  store i8 %6, ptr %0, align 1
  %7 = load i32, ptr %1, align 4
  %8 = lshr i32 %7, 16
  %9 = trunc i32 %8 to i8
  %10 = getelementptr inbounds i8, ptr %0, i64 1
  store i8 %9, ptr %10, align 1
  %11 = load i32, ptr %1, align 4
  %12 = lshr i32 %11, 8
  %13 = trunc i32 %12 to i8
  %14 = getelementptr inbounds i8, ptr %0, i64 2
  store i8 %13, ptr %14, align 1
  %15 = load i32, ptr %1, align 4
  %16 = trunc i32 %15 to i8
  %17 = getelementptr inbounds i8, ptr %0, i64 3
  store i8 %16, ptr %17, align 1
  store i32 0, ptr %1, align 4
  ret void
}